; Function Attrs: mustprogress nounwind uwtable
define hidden void @_ZN19OpenColorIO_v2_5dev12IndexMappingD2Ev(ptr noundef nonnull align 8 captures(none) dereferenceable(88) initializes((0, 8)) %0) unnamed_addr #1 align 2 personality ptr @__gxx_personality_v0 {
  store ptr getelementptr inbounds nuw inrange(-16, 16) (i8, ptr @_ZTVN19OpenColorIO_v2_5dev12IndexMappingE, i64 16), ptr %0, align 8, !tbaa !3
  br label %2

2:                                                ; preds = %_ZNSt6vectorISt4pairIffESaIS1_EED2Ev.exit, %1
  %.idx = phi i64 [ 88, %1 ], [ %.add, %_ZNSt6vectorISt4pairIffESaIS1_EED2Ev.exit ]
  %.add = add nsw i64 %.idx, -24
  %.ptr1 = getelementptr inbounds i8, ptr %0, i64 %.add
  %3 = load ptr, ptr %.ptr1, align 8, !tbaa !10
  %.not.i.i.i = icmp eq ptr %3, null
  br i1 %.not.i.i.i, label %_ZNSt6vectorISt4pairIffESaIS1_EED2Ev.exit, label %4

4:                                                ; preds = %2
  %5 = getelementptr inbounds nuw i8, ptr %.ptr1, i64 16
  %6 = load ptr, ptr %5, align 8, !tbaa !14
  %7 = ptrtoint ptr %6 to i64
  %8 = ptrtoint ptr %3 to i64
  %9 = sub i64 %7, %8
  tail call void @_ZdlPvm(ptr noundef nonnull %3, i64 noundef %9) #16
  br label %_ZNSt6vectorISt4pairIffESaIS1_EED2Ev.exit

_ZNSt6vectorISt4pairIffESaIS1_EED2Ev.exit:        ; preds = %2, %4
  %10 = icmp eq i64 %.add, 16
  br i1 %10, label %11, label %2

11:                                               ; preds = %_ZNSt6vectorISt4pairIffESaIS1_EED2Ev.exit
  ret void
}